target datalayout = "e-m:e-p270:32:32-p271:32:32-p272:64:64-i64:64-i128:128-f80:128-n8:16:32:64-S128"
target triple = "x86_64-pc-linux-gnu"

%struct._object = type { %union.anon, ptr }
%union.anon = type { i64 }

@_Py_NoneStruct = external global %struct._object, align 8

; Function Attrs: noinline nounwind uwtable
define internal i32 @do_fork_exec(ptr noundef %0, ptr noundef %1, ptr noundef %2, ptr noundef %3, i32 noundef %4, i32 noundef %5, i32 noundef %6, i32 noundef %7, i32 noundef %8, i32 noundef %9, i32 noundef %10, i32 noundef %11, i32 noundef %12, i32 noundef %13, i32 noundef %14, i32 noundef %15, i32 noundef %16, i64 noundef %17, ptr noundef %18, i32 noundef %19, i32 noundef %20, ptr noundef %21, ptr noundef %22, i64 noundef %23, ptr noundef %24, ptr noundef %25) #6 {
  %27 = alloca ptr, align 8
  %28 = alloca ptr, align 8
  %29 = alloca ptr, align 8
  %30 = alloca ptr, align 8
  %31 = alloca i32, align 4
  %32 = alloca i32, align 4
  %33 = alloca i32, align 4
  %34 = alloca i32, align 4
  %35 = alloca i32, align 4
  %36 = alloca i32, align 4
  %37 = alloca i32, align 4
  %38 = alloca i32, align 4
  %39 = alloca i32, align 4
  %40 = alloca i32, align 4
  %41 = alloca i32, align 4
  %42 = alloca i32, align 4
  %43 = alloca i32, align 4
  %44 = alloca i64, align 8
  %45 = alloca ptr, align 8
  %46 = alloca i32, align 4
  %47 = alloca i32, align 4
  %48 = alloca ptr, align 8
  %49 = alloca ptr, align 8
  %50 = alloca i64, align 8
  %51 = alloca ptr, align 8
  %52 = alloca ptr, align 8
  %53 = alloca i32, align 4
  %54 = alloca ptr, align 8
  store ptr %0, ptr %27, align 8, !tbaa !29
  store ptr %1, ptr %28, align 8, !tbaa !29
  store ptr %2, ptr %29, align 8, !tbaa !29
  store ptr %3, ptr %30, align 8, !tbaa !28
  store i32 %4, ptr %31, align 4, !tbaa !12
  store i32 %5, ptr %32, align 4, !tbaa !12
  store i32 %6, ptr %33, align 4, !tbaa !12
  store i32 %7, ptr %34, align 4, !tbaa !12
  store i32 %8, ptr %35, align 4, !tbaa !12
  store i32 %9, ptr %36, align 4, !tbaa !12
  store i32 %10, ptr %37, align 4, !tbaa !12
  store i32 %11, ptr %38, align 4, !tbaa !12
  store i32 %12, ptr %39, align 4, !tbaa !12
  store i32 %13, ptr %40, align 4, !tbaa !12
  store i32 %14, ptr %41, align 4, !tbaa !12
  store i32 %15, ptr %42, align 4, !tbaa !12
  store i32 %16, ptr %43, align 4, !tbaa !12
  store i64 %17, ptr %44, align 8, !tbaa !10
  store ptr %18, ptr %45, align 8, !tbaa !26
  store i32 %19, ptr %46, align 4, !tbaa !12
  store i32 %20, ptr %47, align 4, !tbaa !12
  store ptr %21, ptr %48, align 8, !tbaa !38
  store ptr %22, ptr %49, align 8, !tbaa !26
  store i64 %23, ptr %50, align 8, !tbaa !10
  store ptr %24, ptr %51, align 8, !tbaa !3
  store ptr %25, ptr %52, align 8, !tbaa !3
  call void @llvm.lifetime.start.p0(i64 4, ptr %53) #13
  call void @llvm.lifetime.start.p0(i64 8, ptr %54) #13
  %55 = load ptr, ptr %48, align 8, !tbaa !38
  %56 = icmp ne ptr %55, null
  br i1 %56, label %57, label %70

57:                                               ; preds = %26
  %58 = call ptr @PyEval_SaveThread()
  store ptr %58, ptr %54, align 8, !tbaa !39
  %59 = call i32 @vfork() #15
  store i32 %59, ptr %53, align 4, !tbaa !12
  %60 = load i32, ptr %53, align 4, !tbaa !12
  %61 = icmp ne i32 %60, 0
  br i1 %61, label %62, label %64

62:                                               ; preds = %57
  %63 = load ptr, ptr %54, align 8, !tbaa !39
  call void @PyEval_RestoreThread(ptr noundef %63)
  br label %64

64:                                               ; preds = %62, %57
  %65 = load i32, ptr %53, align 4, !tbaa !12
  %66 = icmp eq i32 %65, -1
  br i1 %66, label %67, label %69

67:                                               ; preds = %64
  %68 = call i32 @fork() #13
  store i32 %68, ptr %53, align 4, !tbaa !12
  br label %69

69:                                               ; preds = %67, %64
  br label %72

70:                                               ; preds = %26
  %71 = call i32 @fork() #13
  store i32 %71, ptr %53, align 4, !tbaa !12
  br label %72

72:                                               ; preds = %70, %69
  %73 = load i32, ptr %53, align 4, !tbaa !12
  %74 = icmp ne i32 %73, 0
  br i1 %74, label %75, label %77

75:                                               ; preds = %72
  %76 = load i32, ptr %53, align 4, !tbaa !12
  call void @llvm.lifetime.end.p0(i64 8, ptr %54) #13
  call void @llvm.lifetime.end.p0(i64 4, ptr %53) #13
  ret i32 %76

77:                                               ; preds = %72
  %78 = load ptr, ptr %51, align 8, !tbaa !3
  %79 = icmp ne ptr %78, @_Py_NoneStruct
  br i1 %79, label %80, label %81

80:                                               ; preds = %77
  call void @PyOS_AfterFork_Child()
  br label %81

81:                                               ; preds = %80, %77
  %82 = load ptr, ptr %27, align 8, !tbaa !29
  %83 = load ptr, ptr %28, align 8, !tbaa !29
  %84 = load ptr, ptr %29, align 8, !tbaa !29
  %85 = load ptr, ptr %30, align 8, !tbaa !28
  %86 = load i32, ptr %31, align 4, !tbaa !12
  %87 = load i32, ptr %32, align 4, !tbaa !12
  %88 = load i32, ptr %33, align 4, !tbaa !12
  %89 = load i32, ptr %34, align 4, !tbaa !12
  %90 = load i32, ptr %35, align 4, !tbaa !12
  %91 = load i32, ptr %36, align 4, !tbaa !12
  %92 = load i32, ptr %37, align 4, !tbaa !12
  %93 = load i32, ptr %38, align 4, !tbaa !12
  %94 = load i32, ptr %39, align 4, !tbaa !12
  %95 = load i32, ptr %40, align 4, !tbaa !12
  %96 = load i32, ptr %41, align 4, !tbaa !12
  %97 = load i32, ptr %42, align 4, !tbaa !12
  %98 = load i32, ptr %43, align 4, !tbaa !12
  %99 = load i64, ptr %44, align 8, !tbaa !10
  %100 = load ptr, ptr %45, align 8, !tbaa !26
  %101 = load i32, ptr %46, align 4, !tbaa !12
  %102 = load i32, ptr %47, align 4, !tbaa !12
  %103 = load ptr, ptr %48, align 8, !tbaa !38
  %104 = load ptr, ptr %49, align 8, !tbaa !26
  %105 = load i64, ptr %50, align 8, !tbaa !10
  %106 = load ptr, ptr %51, align 8, !tbaa !3
  %107 = load ptr, ptr %52, align 8, !tbaa !3
  call void @child_exec(ptr noundef %82, ptr noundef %83, ptr noundef %84, ptr noundef %85, i32 noundef %86, i32 noundef %87, i32 noundef %88, i32 noundef %89, i32 noundef %90, i32 noundef %91, i32 noundef %92, i32 noundef %93, i32 noundef %94, i32 noundef %95, i32 noundef %96, i32 noundef %97, i32 noundef %98, i64 noundef %99, ptr noundef %100, i32 noundef %101, i32 noundef %102, ptr noundef %103, ptr noundef %104, i64 noundef %105, ptr noundef %106, ptr noundef %107)
  call void @_exit(i32 noundef 255) #16
  unreachable
}