; Function Attrs: noinline nounwind uwtable
define internal fastcc range(i32 1, 0) i32 @do_fork_exec(ptr noundef nonnull readonly captures(none) %0, ptr noundef %1, ptr noundef %2, ptr noundef %3, i32 noundef %4, i32 noundef %5, i32 noundef %6, i32 noundef %7, i32 noundef %8, i32 noundef %9, i32 noundef %10, i32 noundef %11, i32 noundef range(i32 0, -2147483648) %12, i32 noundef range(i32 0, -2147483648) %13, i32 noundef range(i32 0, -2147483648) %14, i32 noundef %15, i32 noundef %16, i64 noundef range(i64 -2, 65537) %17, ptr noundef %18, i32 noundef %19, i32 noundef %20, ptr noundef %21, ptr noundef nonnull readonly captures(none) %22, i64 noundef %23, ptr noundef %24, ptr noundef %25) unnamed_addr #4 {
  %.not = icmp eq ptr %21, null
  br i1 %.not, label %32, label %27

27:                                               ; preds = %26
  %28 = call ptr @PyEval_SaveThread() #12
  %29 = call i32 @vfork() #14
  %cond = icmp eq i32 %29, 0
  br i1 %cond, label %.thread, label %30

30:                                               ; preds = %27
  call void @PyEval_RestoreThread(ptr noundef %28) #12
  %31 = icmp eq i32 %29, -1
  br i1 %31, label %32, label %.thread41

32:                                               ; preds = %26, %30
  %33 = call i32 @fork() #12
  %.not37 = icmp eq i32 %33, 0
  br i1 %.not37, label %.thread, label %.thread41

.thread41:                                        ; preds = %30, %32
  %.044 = phi i32 [ %33, %32 ], [ %29, %30 ]
  ret i32 %.044

.thread:                                          ; preds = %27, %32
  %.not38 = icmp eq ptr %24, @_Py_NoneStruct
  br i1 %.not38, label %.split, label %.split33

.split33:                                         ; preds = %.thread
  call void @PyOS_AfterFork_Child() #12
  br label %.split

.split:                                           ; preds = %.thread, %.split33
  %_Py_NoneStruct.sink = phi ptr [ %24, %.split33 ], [ @_Py_NoneStruct, %.thread ]
  call fastcc void @child_exec(ptr noundef %0, ptr noundef %1, ptr noundef %2, ptr noundef %3, i32 noundef %4, i32 noundef %5, i32 noundef %6, i32 noundef %7, i32 noundef %8, i32 noundef %9, i32 noundef %10, i32 noundef %11, i32 noundef %12, i32 noundef %13, i32 noundef %14, i32 noundef %15, i32 noundef %16, i64 noundef %17, ptr noundef %18, i32 noundef %19, i32 noundef %20, ptr noundef %21, ptr noundef %22, i64 noundef %23, ptr noundef %_Py_NoneStruct.sink, ptr noundef %25)
  call void @_exit(i32 noundef 255) #15
  unreachable
}